target datalayout = "e-m:e-p270:32:32-p271:32:32-p272:64:64-i64:64-i128:128-f80:128-n8:16:32:64-S128"
target triple = "x86_64-pc-linux-gnu"

%"struct.duckdb::roaring::ContainerCompressionState" = type { i16, i8, i16, i16, i8, ptr, ptr, [2 x ptr], [2 x ptr], [4 x %"struct.duckdb::roaring::RunContainerRLEPair"], [2 x [8 x i16]], i16, [2 x i16], [2 x ptr], ptr, [2 x [248 x i8]], [248 x i8], [2 x [8 x i8]], [8 x i8], ptr, i8, ptr }
%"struct.duckdb::roaring::RunContainerRLEPair" = type { i16, i16 }

; Function Attrs: mustprogress nounwind uwtable
define void @_ZN6duckdb7roaring25ContainerCompressionState8FinalizeEv(ptr noundef nonnull align 8 dereferenceable(936) %0) #2 align 2 {
  %2 = alloca ptr, align 8
  %3 = alloca ptr, align 8
  store ptr %0, ptr %2, align 8, !tbaa !331
  %4 = load ptr, ptr %2, align 8
  %5 = getelementptr inbounds nuw %"struct.duckdb::roaring::ContainerCompressionState", ptr %4, i32 0, i32 2
  %6 = load i16, ptr %5, align 4, !tbaa !336
  %7 = icmp ne i16 %6, 0
  br i1 %7, label %8, label %74

8:                                                ; preds = %1
  %9 = getelementptr inbounds nuw %"struct.duckdb::roaring::ContainerCompressionState", ptr %4, i32 0, i32 4
  %10 = load i8, ptr %9, align 8, !tbaa !338, !range !278, !noundef !279
  %11 = trunc i8 %10 to i1
  br i1 %11, label %12, label %74

12:                                               ; preds = %8
  %13 = getelementptr inbounds nuw %"struct.duckdb::roaring::ContainerCompressionState", ptr %4, i32 0, i32 11
  %14 = load i16, ptr %13, align 8, !tbaa !341
  %15 = zext i16 %14 to i32
  %16 = icmp slt i32 %15, 124
  br i1 %16, label %17, label %74

17:                                               ; preds = %12
  %18 = getelementptr inbounds nuw %"struct.duckdb::roaring::ContainerCompressionState", ptr %4, i32 0, i32 11
  %19 = load i16, ptr %18, align 8, !tbaa !341
  %20 = zext i16 %19 to i32
  %21 = icmp slt i32 %20, 4
  br i1 %21, label %22, label %40

22:                                               ; preds = %17
  call void @llvm.lifetime.start.p0(i64 8, ptr %3) #19
  %23 = getelementptr inbounds nuw %"struct.duckdb::roaring::ContainerCompressionState", ptr %4, i32 0, i32 5
  %24 = load ptr, ptr %23, align 8, !tbaa !344
  %25 = getelementptr inbounds nuw %"struct.duckdb::roaring::ContainerCompressionState", ptr %4, i32 0, i32 11
  %26 = load i16, ptr %25, align 8, !tbaa !341
  %27 = zext i16 %26 to i64
  %28 = getelementptr inbounds nuw %"struct.duckdb::roaring::RunContainerRLEPair", ptr %24, i64 %27
  store ptr %28, ptr %3, align 8, !tbaa !359
  %29 = getelementptr inbounds nuw %"struct.duckdb::roaring::ContainerCompressionState", ptr %4, i32 0, i32 2
  %30 = load i16, ptr %29, align 4, !tbaa !336
  %31 = zext i16 %30 to i32
  %32 = load ptr, ptr %3, align 8, !tbaa !359
  %33 = getelementptr inbounds nuw %"struct.duckdb::roaring::RunContainerRLEPair", ptr %32, i32 0, i32 0
  %34 = load i16, ptr %33, align 2, !tbaa !360
  %35 = zext i16 %34 to i32
  %36 = sub nsw i32 %31, %35
  %37 = trunc i32 %36 to i16
  %38 = load ptr, ptr %3, align 8, !tbaa !359
  %39 = getelementptr inbounds nuw %"struct.duckdb::roaring::RunContainerRLEPair", ptr %38, i32 0, i32 1
  store i16 %37, ptr %39, align 2, !tbaa !362
  call void @llvm.lifetime.end.p0(i64 8, ptr %3) #19
  br label %40

40:                                               ; preds = %22, %17
  %41 = getelementptr inbounds nuw %"struct.duckdb::roaring::ContainerCompressionState", ptr %4, i32 0, i32 2
  %42 = load i16, ptr %41, align 4, !tbaa !336
  %43 = zext i16 %42 to i32
  %44 = srem i32 %43, 256
  %45 = trunc i32 %44 to i8
  %46 = getelementptr inbounds nuw %"struct.duckdb::roaring::ContainerCompressionState", ptr %4, i32 0, i32 6
  %47 = load ptr, ptr %46, align 8, !tbaa !345
  %48 = getelementptr inbounds nuw %"struct.duckdb::roaring::ContainerCompressionState", ptr %4, i32 0, i32 11
  %49 = load i16, ptr %48, align 8, !tbaa !341
  %50 = zext i16 %49 to i32
  %51 = mul nsw i32 %50, 2
  %52 = add nsw i32 %51, 1
  %53 = sext i32 %52 to i64
  %54 = getelementptr inbounds i8, ptr %47, i64 %53
  store i8 %45, ptr %54, align 1, !tbaa !292
  %55 = getelementptr inbounds nuw %"struct.duckdb::roaring::ContainerCompressionState", ptr %4, i32 0, i32 2
  %56 = load i16, ptr %55, align 4, !tbaa !336
  %57 = zext i16 %56 to i64
  %58 = icmp ne i64 %57, 2048
  br i1 %58, label %59, label %70

59:                                               ; preds = %40
  %60 = getelementptr inbounds nuw %"struct.duckdb::roaring::ContainerCompressionState", ptr %4, i32 0, i32 14
  %61 = load ptr, ptr %60, align 8, !tbaa !346
  %62 = getelementptr inbounds nuw %"struct.duckdb::roaring::ContainerCompressionState", ptr %4, i32 0, i32 2
  %63 = load i16, ptr %62, align 4, !tbaa !336
  %64 = zext i16 %63 to i32
  %65 = ashr i32 %64, 8
  %66 = sext i32 %65 to i64
  %67 = getelementptr inbounds i8, ptr %61, i64 %66
  %68 = load i8, ptr %67, align 1, !tbaa !292
  %69 = add i8 %68, 1
  store i8 %69, ptr %67, align 1, !tbaa !292
  br label %70

70:                                               ; preds = %59, %40
  %71 = getelementptr inbounds nuw %"struct.duckdb::roaring::ContainerCompressionState", ptr %4, i32 0, i32 11
  %72 = load i16, ptr %71, align 8, !tbaa !341
  %73 = add i16 %72, 1
  store i16 %73, ptr %71, align 8, !tbaa !341
  br label %74

74:                                               ; preds = %70, %12, %8, %1
  %75 = getelementptr inbounds nuw %"struct.duckdb::roaring::ContainerCompressionState", ptr %4, i32 0, i32 20
  store i8 1, ptr %75, align 8, !tbaa !340
  ret void
}