; Function Attrs: mustprogress nofree norecurse nosync nounwind willreturn memory(readwrite, inaccessiblemem: none) uwtable
define void @_ZN6duckdb7roaring25ContainerCompressionState8FinalizeEv(ptr noundef nonnull align 8 captures(none) dereferenceable(936) initializes((920, 921)) %0) local_unnamed_addr #16 align 2 {
  %2 = getelementptr inbounds nuw i8, ptr %0, i64 4
  %3 = load i16, ptr %2, align 4, !tbaa !340
  %.not = icmp eq i16 %3, 0
  br i1 %.not, label %42, label %4

4:                                                ; preds = %1
  %5 = getelementptr inbounds nuw i8, ptr %0, i64 8
  %6 = load i8, ptr %5, align 8, !tbaa !343, !range !319, !noundef !229
  %7 = trunc nuw i8 %6 to i1
  br i1 %7, label %8, label %42

8:                                                ; preds = %4
  %9 = getelementptr inbounds nuw i8, ptr %0, i64 112
  %10 = load i16, ptr %9, align 8, !tbaa !333
  %11 = icmp ult i16 %10, 124
  br i1 %11, label %12, label %42

12:                                               ; preds = %8
  %13 = icmp samesign ult i16 %10, 4
  br i1 %13, label %14, label %22

14:                                               ; preds = %12
  %15 = getelementptr inbounds nuw i8, ptr %0, i64 16
  %16 = load ptr, ptr %15, align 8, !tbaa !337
  %17 = zext nneg i16 %10 to i64
  %18 = getelementptr inbounds nuw %"struct.duckdb::roaring::RunContainerRLEPair", ptr %16, i64 %17
  %19 = load i16, ptr %18, align 2, !tbaa !352
  %20 = sub i16 %3, %19
  %21 = getelementptr inbounds nuw i8, ptr %18, i64 2
  store i16 %20, ptr %21, align 2, !tbaa !354
  br label %22

22:                                               ; preds = %14, %12
  %23 = trunc i16 %3 to i8
  %24 = getelementptr inbounds nuw i8, ptr %0, i64 24
  %25 = load ptr, ptr %24, align 8, !tbaa !338
  %26 = shl nuw nsw i16 %10, 1
  %27 = or disjoint i16 %26, 1
  %28 = zext nneg i16 %27 to i64
  %29 = getelementptr inbounds nuw i8, ptr %25, i64 %28
  store i8 %23, ptr %29, align 1, !tbaa !295
  %30 = load i16, ptr %2, align 4, !tbaa !340
  %.not4 = icmp eq i16 %30, 2048
  br i1 %.not4, label %39, label %31

31:                                               ; preds = %22
  %32 = getelementptr inbounds nuw i8, ptr %0, i64 136
  %33 = load ptr, ptr %32, align 8, !tbaa !339
  %34 = lshr i16 %30, 8
  %35 = zext nneg i16 %34 to i64
  %36 = getelementptr inbounds nuw i8, ptr %33, i64 %35
  %37 = load i8, ptr %36, align 1, !tbaa !295
  %38 = add i8 %37, 1
  store i8 %38, ptr %36, align 1, !tbaa !295
  br label %39

39:                                               ; preds = %31, %22
  %40 = load i16, ptr %9, align 8, !tbaa !333
  %41 = add i16 %40, 1
  store i16 %41, ptr %9, align 8, !tbaa !333
  br label %42

42:                                               ; preds = %39, %8, %4, %1
  %43 = getelementptr inbounds nuw i8, ptr %0, i64 920
  store i8 1, ptr %43, align 8, !tbaa !342
  ret void
}